target datalayout = "e-m:e-p270:32:32-p271:32:32-p272:64:64-i64:64-i128:128-f80:128-n8:16:32:64-S128"
target triple = "x86_64-pc-linux-gnu"

%struct.FuncState = type { ptr, ptr, ptr, ptr, ptr, ptr, i32, i32, i32, i32, i32, i32, i16, i8, [60 x %struct.upvaldesc], [200 x i16] }
%struct.upvaldesc = type { i8, i8 }
%struct.Proto = type { ptr, i8, i8, ptr, ptr, ptr, ptr, ptr, ptr, ptr, i32, i32, i32, i32, i32, i32, i32, i32, ptr, i8, i8, i8, i8 }
%struct.expdesc = type { i32, %union.anon, i32, i32 }
%union.anon = type { double }
%struct.anon = type { i32, i32 }

; Function Attrs: nounwind uwtable
define hidden void @luaK_setoneret(ptr noundef %0, ptr noundef %1) #0 {
  %3 = alloca ptr, align 8
  %4 = alloca ptr, align 8
  store ptr %0, ptr %3, align 8, !tbaa !4
  store ptr %1, ptr %4, align 8, !tbaa !60
  %5 = load ptr, ptr %4, align 8, !tbaa !60
  %6 = getelementptr inbounds nuw %struct.expdesc, ptr %5, i32 0, i32 0
  %7 = load i32, ptr %6, align 8, !tbaa !62
  %8 = icmp eq i32 %7, 13
  br i1 %8, label %9, label %29

9:                                                ; preds = %2
  %10 = load ptr, ptr %4, align 8, !tbaa !60
  %11 = getelementptr inbounds nuw %struct.expdesc, ptr %10, i32 0, i32 0
  store i32 12, ptr %11, align 8, !tbaa !62
  %12 = load ptr, ptr %3, align 8, !tbaa !4
  %13 = getelementptr inbounds nuw %struct.FuncState, ptr %12, i32 0, i32 0
  %14 = load ptr, ptr %13, align 8, !tbaa !21
  %15 = getelementptr inbounds nuw %struct.Proto, ptr %14, i32 0, i32 4
  %16 = load ptr, ptr %15, align 8, !tbaa !22
  %17 = load ptr, ptr %4, align 8, !tbaa !60
  %18 = getelementptr inbounds nuw %struct.expdesc, ptr %17, i32 0, i32 1
  %19 = getelementptr inbounds nuw %struct.anon, ptr %18, i32 0, i32 0
  %20 = load i32, ptr %19, align 8, !tbaa !46
  %21 = sext i32 %20 to i64
  %22 = getelementptr inbounds i32, ptr %16, i64 %21
  %23 = load i32, ptr %22, align 4, !tbaa !9
  %24 = lshr i32 %23, 6
  %25 = and i32 %24, 255
  %26 = load ptr, ptr %4, align 8, !tbaa !60
  %27 = getelementptr inbounds nuw %struct.expdesc, ptr %26, i32 0, i32 1
  %28 = getelementptr inbounds nuw %struct.anon, ptr %27, i32 0, i32 0
  store i32 %25, ptr %28, align 8, !tbaa !46
  br label %63

29:                                               ; preds = %2
  %30 = load ptr, ptr %4, align 8, !tbaa !60
  %31 = getelementptr inbounds nuw %struct.expdesc, ptr %30, i32 0, i32 0
  %32 = load i32, ptr %31, align 8, !tbaa !62
  %33 = icmp eq i32 %32, 14
  br i1 %33, label %34, label %62

34:                                               ; preds = %29
  %35 = load ptr, ptr %3, align 8, !tbaa !4
  %36 = getelementptr inbounds nuw %struct.FuncState, ptr %35, i32 0, i32 0
  %37 = load ptr, ptr %36, align 8, !tbaa !21
  %38 = getelementptr inbounds nuw %struct.Proto, ptr %37, i32 0, i32 4
  %39 = load ptr, ptr %38, align 8, !tbaa !22
  %40 = load ptr, ptr %4, align 8, !tbaa !60
  %41 = getelementptr inbounds nuw %struct.expdesc, ptr %40, i32 0, i32 1
  %42 = getelementptr inbounds nuw %struct.anon, ptr %41, i32 0, i32 0
  %43 = load i32, ptr %42, align 8, !tbaa !46
  %44 = sext i32 %43 to i64
  %45 = getelementptr inbounds i32, ptr %39, i64 %44
  %46 = load i32, ptr %45, align 4, !tbaa !9
  %47 = and i32 %46, 8388607
  %48 = or i32 %47, 16777216
  %49 = load ptr, ptr %3, align 8, !tbaa !4
  %50 = getelementptr inbounds nuw %struct.FuncState, ptr %49, i32 0, i32 0
  %51 = load ptr, ptr %50, align 8, !tbaa !21
  %52 = getelementptr inbounds nuw %struct.Proto, ptr %51, i32 0, i32 4
  %53 = load ptr, ptr %52, align 8, !tbaa !22
  %54 = load ptr, ptr %4, align 8, !tbaa !60
  %55 = getelementptr inbounds nuw %struct.expdesc, ptr %54, i32 0, i32 1
  %56 = getelementptr inbounds nuw %struct.anon, ptr %55, i32 0, i32 0
  %57 = load i32, ptr %56, align 8, !tbaa !46
  %58 = sext i32 %57 to i64
  %59 = getelementptr inbounds i32, ptr %53, i64 %58
  store i32 %48, ptr %59, align 4, !tbaa !9
  %60 = load ptr, ptr %4, align 8, !tbaa !60
  %61 = getelementptr inbounds nuw %struct.expdesc, ptr %60, i32 0, i32 0
  store i32 11, ptr %61, align 8, !tbaa !62
  br label %62

62:                                               ; preds = %34, %29
  br label %63

63:                                               ; preds = %62, %9
  ret void
}