; Function Attrs: mustprogress nofree norecurse nosync nounwind willreturn memory(readwrite, inaccessiblemem: none) uwtable
define hidden void @luaK_setoneret(ptr noundef readonly captures(none) %0, ptr noundef captures(none) %1) local_unnamed_addr #4 {
  %3 = load i32, ptr %1, align 8, !tbaa !51
  switch i32 %3, label %26 [
    i32 13, label %4
    i32 14, label %15
  ]

4:                                                ; preds = %2
  store i32 12, ptr %1, align 8, !tbaa !51
  %5 = load ptr, ptr %0, align 8, !tbaa !19
  %6 = getelementptr inbounds nuw i8, ptr %5, i64 24
  %7 = load ptr, ptr %6, align 8, !tbaa !20
  %8 = getelementptr inbounds nuw i8, ptr %1, i64 8
  %9 = load i32, ptr %8, align 8, !tbaa !39
  %10 = sext i32 %9 to i64
  %11 = getelementptr inbounds i32, ptr %7, i64 %10
  %12 = load i32, ptr %11, align 4, !tbaa !29
  %13 = lshr i32 %12, 6
  %14 = and i32 %13, 255
  store i32 %14, ptr %8, align 8, !tbaa !39
  br label %26

15:                                               ; preds = %2
  %16 = load ptr, ptr %0, align 8, !tbaa !19
  %17 = getelementptr inbounds nuw i8, ptr %16, i64 24
  %18 = load ptr, ptr %17, align 8, !tbaa !20
  %19 = getelementptr inbounds nuw i8, ptr %1, i64 8
  %20 = load i32, ptr %19, align 8, !tbaa !39
  %21 = sext i32 %20 to i64
  %22 = getelementptr inbounds i32, ptr %18, i64 %21
  %23 = load i32, ptr %22, align 4, !tbaa !29
  %24 = and i32 %23, 8388607
  %25 = or disjoint i32 %24, 16777216
  store i32 %25, ptr %22, align 4, !tbaa !29
  store i32 11, ptr %1, align 8, !tbaa !51
  br label %26

26:                                               ; preds = %2, %15, %4
  ret void
}